target datalayout = "e-m:e-p270:32:32-p271:32:32-p272:64:64-i64:64-i128:128-f80:128-n8:16:32:64-S128"
target triple = "x86_64-pc-linux-gnu"

%struct.RangeBound = type { i64, i8, i8, i8 }
%struct.FunctionCallInfoBaseData = type { ptr, ptr, ptr, i32, i8, i16, [0 x %struct.NullableDatum] }
%struct.NullableDatum = type { i64, i8 }
%struct.FmgrInfo = type { ptr, i32, i16, i8, i8, i8, ptr, ptr, ptr }
%struct.TypeCacheEntry = type { i32, i32, i16, i8, i8, i8, i8, i32, i32, i32, i32, i32, i32, i32, i32, i32, i32, i32, i32, i32, i32, %struct.FmgrInfo, %struct.FmgrInfo, %struct.FmgrInfo, %struct.FmgrInfo, ptr, i64, ptr, i32, i32, %struct.FmgrInfo, %struct.FmgrInfo, %struct.FmgrInfo, ptr, i32, i32, ptr, i32, ptr, ptr }

@.str = private unnamed_addr constant [50 x i8] c"range constructor flags argument must not be null\00", align 1
@.str.1 = private unnamed_addr constant [13 x i8] c"rangetypes.c\00", align 1
@__func__.range_constructor3 = private unnamed_addr constant [19 x i8] c"range_constructor3\00", align 1
@.str.12 = private unnamed_addr constant [28 x i8] c"type %u is not a range type\00", align 1
@__func__.range_get_typcache = private unnamed_addr constant [19 x i8] c"range_get_typcache\00", align 1
@.str.19 = private unnamed_addr constant [26 x i8] c"invalid range bound flags\00", align 1
@.str.20 = private unnamed_addr constant [45 x i8] c"Valid values are \22[]\22, \22[)\22, \22(]\22, and \22()\22.\00", align 1
@__func__.range_parse_flags = private unnamed_addr constant [18 x i8] c"range_parse_flags\00", align 1

; Function Attrs: inlinehint nounwind uwtable
define internal i64 @PointerGetDatum(ptr noundef %0) #2 {
  %2 = alloca ptr, align 8
  store ptr %0, ptr %2, align 8
  %3 = load ptr, ptr %2, align 8
  %4 = ptrtoint ptr %3 to i64
  ret i64 %4
}

; Function Attrs: inlinehint nounwind uwtable
define internal i64 @RangeTypePGetDatum(ptr noundef %0) #2 {
  %2 = alloca ptr, align 8
  store ptr %0, ptr %2, align 8
  %3 = load ptr, ptr %2, align 8
  %4 = call i64 @PointerGetDatum(ptr noundef %3)
  ret i64 %4
}

; Function Attrs: nounwind uwtable
define internal signext i8 @range_parse_flags(ptr noundef %0) #0 {
  %2 = alloca ptr, align 8
  %3 = alloca i8, align 1
  store ptr %0, ptr %2, align 8
  call void @llvm.lifetime.start.p0(i64 1, ptr %3) #10
  store i8 0, ptr %3, align 1
  %4 = load ptr, ptr %2, align 8
  %5 = getelementptr inbounds i8, ptr %4, i64 0
  %6 = load i8, ptr %5, align 1
  %7 = sext i8 %6 to i32
  %8 = icmp eq i32 %7, 0
  br i1 %8, label %21, label %9

9:                                                ; preds = %1
  %10 = load ptr, ptr %2, align 8
  %11 = getelementptr inbounds i8, ptr %10, i64 1
  %12 = load i8, ptr %11, align 1
  %13 = sext i8 %12 to i32
  %14 = icmp eq i32 %13, 0
  br i1 %14, label %21, label %15

15:                                               ; preds = %9
  %16 = load ptr, ptr %2, align 8
  %17 = getelementptr inbounds i8, ptr %16, i64 2
  %18 = load i8, ptr %17, align 1
  %19 = sext i8 %18 to i32
  %20 = icmp ne i32 %19, 0
  br i1 %20, label %21, label %34

21:                                               ; preds = %15, %9, %1
  br label %22

22:                                               ; preds = %21
  br i1 true, label %23, label %25

23:                                               ; preds = %22
  %24 = call zeroext i1 @errstart_cold(i32 noundef 21, ptr noundef null) #11
  br i1 %24, label %27, label %31

25:                                               ; preds = %22
  %26 = call zeroext i1 @errstart(i32 noundef 21, ptr noundef null)
  br i1 %26, label %27, label %31

27:                                               ; preds = %25, %23
  %28 = call i32 @errcode(i32 noundef 16801924)
  %29 = call i32 (ptr, ...) @errmsg(ptr noundef @.str.19)
  %30 = call i32 (ptr, ...) @errhint(ptr noundef @.str.20)
  call void @errfinish(ptr noundef @.str.1, i32 noundef 2257, ptr noundef @__func__.range_parse_flags)
  br label %31

31:                                               ; preds = %27, %25, %23
  unreachable

32:                                               ; No predecessors!
  br label %33

33:                                               ; preds = %32
  br label %34

34:                                               ; preds = %33, %15
  %35 = load ptr, ptr %2, align 8
  %36 = getelementptr inbounds i8, ptr %35, i64 0
  %37 = load i8, ptr %36, align 1
  %38 = sext i8 %37 to i32
  switch i32 %38, label %44 [
    i32 91, label %39
    i32 40, label %57
  ]

39:                                               ; preds = %34
  %40 = load i8, ptr %3, align 1
  %41 = sext i8 %40 to i32
  %42 = or i32 %41, 2
  %43 = trunc i32 %42 to i8
  store i8 %43, ptr %3, align 1
  br label %57

44:                                               ; preds = %34
  br label %45

45:                                               ; preds = %44
  br i1 true, label %46, label %48

46:                                               ; preds = %45
  %47 = call zeroext i1 @errstart_cold(i32 noundef 21, ptr noundef null) #11
  br i1 %47, label %50, label %54

48:                                               ; preds = %45
  %49 = call zeroext i1 @errstart(i32 noundef 21, ptr noundef null)
  br i1 %49, label %50, label %54

50:                                               ; preds = %48, %46
  %51 = call i32 @errcode(i32 noundef 16801924)
  %52 = call i32 (ptr, ...) @errmsg(ptr noundef @.str.19)
  %53 = call i32 (ptr, ...) @errhint(ptr noundef @.str.20)
  call void @errfinish(ptr noundef @.str.1, i32 noundef 2270, ptr noundef @__func__.range_parse_flags)
  br label %54

54:                                               ; preds = %50, %48, %46
  unreachable

55:                                               ; No predecessors!
  br label %56

56:                                               ; preds = %55
  br label %57

57:                                               ; preds = %56, %34, %39
  %58 = load ptr, ptr %2, align 8
  %59 = getelementptr inbounds i8, ptr %58, i64 1
  %60 = load i8, ptr %59, align 1
  %61 = sext i8 %60 to i32
  switch i32 %61, label %67 [
    i32 93, label %62
    i32 41, label %80
  ]

62:                                               ; preds = %57
  %63 = load i8, ptr %3, align 1
  %64 = sext i8 %63 to i32
  %65 = or i32 %64, 4
  %66 = trunc i32 %65 to i8
  store i8 %66, ptr %3, align 1
  br label %80

67:                                               ; preds = %57
  br label %68

68:                                               ; preds = %67
  br i1 true, label %69, label %71

69:                                               ; preds = %68
  %70 = call zeroext i1 @errstart_cold(i32 noundef 21, ptr noundef null) #11
  br i1 %70, label %73, label %77

71:                                               ; preds = %68
  %72 = call zeroext i1 @errstart(i32 noundef 21, ptr noundef null)
  br i1 %72, label %73, label %77

73:                                               ; preds = %71, %69
  %74 = call i32 @errcode(i32 noundef 16801924)
  %75 = call i32 (ptr, ...) @errmsg(ptr noundef @.str.19)
  %76 = call i32 (ptr, ...) @errhint(ptr noundef @.str.20)
  call void @errfinish(ptr noundef @.str.1, i32 noundef 2284, ptr noundef @__func__.range_parse_flags)
  br label %77

77:                                               ; preds = %73, %71, %69
  unreachable

78:                                               ; No predecessors!
  br label %79

79:                                               ; preds = %78
  br label %80

80:                                               ; preds = %79, %57, %62
  %81 = load i8, ptr %3, align 1
  call void @llvm.lifetime.end.p0(i64 1, ptr %3) #10
  ret i8 %81
}

; Function Attrs: inlinehint nounwind uwtable
define internal ptr @DatumGetPointer(i64 noundef %0) #2 {
  %2 = alloca i64, align 8
  store i64 %0, ptr %2, align 8
  %3 = load i64, ptr %2, align 8
  %4 = inttoptr i64 %3 to ptr
  ret ptr %4
}

; Function Attrs: nounwind uwtable
define dso_local ptr @range_get_typcache(ptr noundef %0, i32 noundef %1) #0 {
  %3 = alloca ptr, align 8
  %4 = alloca i32, align 4
  %5 = alloca ptr, align 8
  store ptr %0, ptr %3, align 8
  store i32 %1, ptr %4, align 4
  call void @llvm.lifetime.start.p0(i64 8, ptr %5) #10
  %6 = load ptr, ptr %3, align 8
  %7 = getelementptr inbounds nuw %struct.FunctionCallInfoBaseData, ptr %6, i32 0, i32 0
  %8 = load ptr, ptr %7, align 8
  %9 = getelementptr inbounds nuw %struct.FmgrInfo, ptr %8, i32 0, i32 6
  %10 = load ptr, ptr %9, align 8
  store ptr %10, ptr %5, align 8
  %11 = load ptr, ptr %5, align 8
  %12 = icmp eq ptr %11, null
  br i1 %12, label %19, label %13

13:                                               ; preds = %2
  %14 = load ptr, ptr %5, align 8
  %15 = getelementptr inbounds nuw %struct.TypeCacheEntry, ptr %14, i32 0, i32 0
  %16 = load i32, ptr %15, align 8
  %17 = load i32, ptr %4, align 4
  %18 = icmp ne i32 %16, %17
  br i1 %18, label %19, label %44

19:                                               ; preds = %13, %2
  %20 = load i32, ptr %4, align 4
  %21 = call ptr @lookup_type_cache(i32 noundef %20, i32 noundef 2048)
  store ptr %21, ptr %5, align 8
  %22 = load ptr, ptr %5, align 8
  %23 = getelementptr inbounds nuw %struct.TypeCacheEntry, ptr %22, i32 0, i32 27
  %24 = load ptr, ptr %23, align 8
  %25 = icmp eq ptr %24, null
  br i1 %25, label %26, label %38

26:                                               ; preds = %19
  br label %27

27:                                               ; preds = %26
  br i1 true, label %28, label %30

28:                                               ; preds = %27
  %29 = call zeroext i1 @errstart_cold(i32 noundef 21, ptr noundef null) #11
  br i1 %29, label %32, label %35

30:                                               ; preds = %27
  %31 = call zeroext i1 @errstart(i32 noundef 21, ptr noundef null)
  br i1 %31, label %32, label %35

32:                                               ; preds = %30, %28
  %33 = load i32, ptr %4, align 4
  %34 = call i32 (ptr, ...) @errmsg_internal(ptr noundef @.str.12, i32 noundef %33)
  call void @errfinish(ptr noundef @.str.1, i32 noundef 1712, ptr noundef @__func__.range_get_typcache)
  br label %35

35:                                               ; preds = %32, %30, %28
  unreachable

36:                                               ; No predecessors!
  br label %37

37:                                               ; preds = %36
  br label %38

38:                                               ; preds = %37, %19
  %39 = load ptr, ptr %5, align 8
  %40 = load ptr, ptr %3, align 8
  %41 = getelementptr inbounds nuw %struct.FunctionCallInfoBaseData, ptr %40, i32 0, i32 0
  %42 = load ptr, ptr %41, align 8
  %43 = getelementptr inbounds nuw %struct.FmgrInfo, ptr %42, i32 0, i32 6
  store ptr %39, ptr %43, align 8
  br label %44

44:                                               ; preds = %38, %13
  %45 = load ptr, ptr %5, align 8
  call void @llvm.lifetime.end.p0(i64 8, ptr %5) #10
  ret ptr %45
}

; Function Attrs: nounwind uwtable
define dso_local i64 @range_constructor3(ptr noundef %0) #0 {
  %2 = alloca ptr, align 8
  %3 = alloca i64, align 8
  %4 = alloca i64, align 8
  %5 = alloca i32, align 4
  %6 = alloca ptr, align 8
  %7 = alloca ptr, align 8
  %8 = alloca %struct.RangeBound, align 8
  %9 = alloca %struct.RangeBound, align 8
  %10 = alloca i8, align 1
  store ptr %0, ptr %2, align 8
  call void @llvm.lifetime.start.p0(i64 8, ptr %3) #10
  %11 = load ptr, ptr %2, align 8
  %12 = getelementptr inbounds nuw %struct.FunctionCallInfoBaseData, ptr %11, i32 0, i32 6
  %13 = getelementptr inbounds [0 x %struct.NullableDatum], ptr %12, i64 0, i64 0
  %14 = getelementptr inbounds nuw %struct.NullableDatum, ptr %13, i32 0, i32 0
  %15 = load i64, ptr %14, align 8
  store i64 %15, ptr %3, align 8
  call void @llvm.lifetime.start.p0(i64 8, ptr %4) #10
  %16 = load ptr, ptr %2, align 8
  %17 = getelementptr inbounds nuw %struct.FunctionCallInfoBaseData, ptr %16, i32 0, i32 6
  %18 = getelementptr inbounds [0 x %struct.NullableDatum], ptr %17, i64 0, i64 1
  %19 = getelementptr inbounds nuw %struct.NullableDatum, ptr %18, i32 0, i32 0
  %20 = load i64, ptr %19, align 8
  store i64 %20, ptr %4, align 8
  call void @llvm.lifetime.start.p0(i64 4, ptr %5) #10
  %21 = load ptr, ptr %2, align 8
  %22 = getelementptr inbounds nuw %struct.FunctionCallInfoBaseData, ptr %21, i32 0, i32 0
  %23 = load ptr, ptr %22, align 8
  %24 = call i32 @get_fn_expr_rettype(ptr noundef %23)
  store i32 %24, ptr %5, align 4
  call void @llvm.lifetime.start.p0(i64 8, ptr %6) #10
  call void @llvm.lifetime.start.p0(i64 8, ptr %7) #10
  call void @llvm.lifetime.start.p0(i64 16, ptr %8) #10
  call void @llvm.lifetime.start.p0(i64 16, ptr %9) #10
  call void @llvm.lifetime.start.p0(i64 1, ptr %10) #10
  %25 = load ptr, ptr %2, align 8
  %26 = load i32, ptr %5, align 4
  %27 = call ptr @range_get_typcache(ptr noundef %25, i32 noundef %26)
  store ptr %27, ptr %7, align 8
  %28 = load ptr, ptr %2, align 8
  %29 = getelementptr inbounds nuw %struct.FunctionCallInfoBaseData, ptr %28, i32 0, i32 6
  %30 = getelementptr inbounds [0 x %struct.NullableDatum], ptr %29, i64 0, i64 2
  %31 = getelementptr inbounds nuw %struct.NullableDatum, ptr %30, i32 0, i32 1
  %32 = load i8, ptr %31, align 8, !range !7, !noundef !8
  %33 = trunc i8 %32 to i1
  br i1 %33, label %34, label %46

34:                                               ; preds = %1
  br label %35

35:                                               ; preds = %34
  br i1 true, label %36, label %38

36:                                               ; preds = %35
  %37 = call zeroext i1 @errstart_cold(i32 noundef 21, ptr noundef null) #11
  br i1 %37, label %40, label %43

38:                                               ; preds = %35
  %39 = call zeroext i1 @errstart(i32 noundef 21, ptr noundef null)
  br i1 %39, label %40, label %43

40:                                               ; preds = %38, %36
  %41 = call i32 @errcode(i32 noundef 130)
  %42 = call i32 (ptr, ...) @errmsg(ptr noundef @.str)
  call void @errfinish(ptr noundef @.str.1, i32 noundef 422, ptr noundef @__func__.range_constructor3)
  br label %43

43:                                               ; preds = %40, %38, %36
  unreachable

44:                                               ; No predecessors!
  br label %45

45:                                               ; preds = %44
  br label %46

46:                                               ; preds = %45, %1
  %47 = load ptr, ptr %2, align 8
  %48 = getelementptr inbounds nuw %struct.FunctionCallInfoBaseData, ptr %47, i32 0, i32 6
  %49 = getelementptr inbounds [0 x %struct.NullableDatum], ptr %48, i64 0, i64 2
  %50 = getelementptr inbounds nuw %struct.NullableDatum, ptr %49, i32 0, i32 0
  %51 = load i64, ptr %50, align 8
  %52 = call ptr @DatumGetPointer(i64 noundef %51)
  %53 = call ptr @pg_detoast_datum_packed(ptr noundef %52)
  %54 = call ptr @text_to_cstring(ptr noundef %53)
  %55 = call signext i8 @range_parse_flags(ptr noundef %54)
  store i8 %55, ptr %10, align 1
  %56 = load ptr, ptr %2, align 8
  %57 = getelementptr inbounds nuw %struct.FunctionCallInfoBaseData, ptr %56, i32 0, i32 6
  %58 = getelementptr inbounds [0 x %struct.NullableDatum], ptr %57, i64 0, i64 0
  %59 = getelementptr inbounds nuw %struct.NullableDatum, ptr %58, i32 0, i32 1
  %60 = load i8, ptr %59, align 8, !range !7, !noundef !8
  %61 = trunc i8 %60 to i1
  br i1 %61, label %62, label %63

62:                                               ; preds = %46
  br label %65

63:                                               ; preds = %46
  %64 = load i64, ptr %3, align 8
  br label %65

65:                                               ; preds = %63, %62
  %66 = phi i64 [ 0, %62 ], [ %64, %63 ]
  %67 = getelementptr inbounds nuw %struct.RangeBound, ptr %8, i32 0, i32 0
  store i64 %66, ptr %67, align 8
  %68 = load ptr, ptr %2, align 8
  %69 = getelementptr inbounds nuw %struct.FunctionCallInfoBaseData, ptr %68, i32 0, i32 6
  %70 = getelementptr inbounds [0 x %struct.NullableDatum], ptr %69, i64 0, i64 0
  %71 = getelementptr inbounds nuw %struct.NullableDatum, ptr %70, i32 0, i32 1
  %72 = load i8, ptr %71, align 8, !range !7, !noundef !8
  %73 = trunc i8 %72 to i1
  %74 = getelementptr inbounds nuw %struct.RangeBound, ptr %8, i32 0, i32 1
  %75 = zext i1 %73 to i8
  store i8 %75, ptr %74, align 8
  %76 = load i8, ptr %10, align 1
  %77 = sext i8 %76 to i32
  %78 = and i32 %77, 2
  %79 = icmp ne i32 %78, 0
  %80 = getelementptr inbounds nuw %struct.RangeBound, ptr %8, i32 0, i32 2
  %81 = zext i1 %79 to i8
  store i8 %81, ptr %80, align 1
  %82 = getelementptr inbounds nuw %struct.RangeBound, ptr %8, i32 0, i32 3
  store i8 1, ptr %82, align 2
  %83 = load ptr, ptr %2, align 8
  %84 = getelementptr inbounds nuw %struct.FunctionCallInfoBaseData, ptr %83, i32 0, i32 6
  %85 = getelementptr inbounds [0 x %struct.NullableDatum], ptr %84, i64 0, i64 1
  %86 = getelementptr inbounds nuw %struct.NullableDatum, ptr %85, i32 0, i32 1
  %87 = load i8, ptr %86, align 8, !range !7, !noundef !8
  %88 = trunc i8 %87 to i1
  br i1 %88, label %89, label %90

89:                                               ; preds = %65
  br label %92

90:                                               ; preds = %65
  %91 = load i64, ptr %4, align 8
  br label %92

92:                                               ; preds = %90, %89
  %93 = phi i64 [ 0, %89 ], [ %91, %90 ]
  %94 = getelementptr inbounds nuw %struct.RangeBound, ptr %9, i32 0, i32 0
  store i64 %93, ptr %94, align 8
  %95 = load ptr, ptr %2, align 8
  %96 = getelementptr inbounds nuw %struct.FunctionCallInfoBaseData, ptr %95, i32 0, i32 6
  %97 = getelementptr inbounds [0 x %struct.NullableDatum], ptr %96, i64 0, i64 1
  %98 = getelementptr inbounds nuw %struct.NullableDatum, ptr %97, i32 0, i32 1
  %99 = load i8, ptr %98, align 8, !range !7, !noundef !8
  %100 = trunc i8 %99 to i1
  %101 = getelementptr inbounds nuw %struct.RangeBound, ptr %9, i32 0, i32 1
  %102 = zext i1 %100 to i8
  store i8 %102, ptr %101, align 8
  %103 = load i8, ptr %10, align 1
  %104 = sext i8 %103 to i32
  %105 = and i32 %104, 4
  %106 = icmp ne i32 %105, 0
  %107 = getelementptr inbounds nuw %struct.RangeBound, ptr %9, i32 0, i32 2
  %108 = zext i1 %106 to i8
  store i8 %108, ptr %107, align 1
  %109 = getelementptr inbounds nuw %struct.RangeBound, ptr %9, i32 0, i32 3
  store i8 0, ptr %109, align 2
  %110 = load ptr, ptr %7, align 8
  %111 = call ptr @make_range(ptr noundef %110, ptr noundef %8, ptr noundef %9, i1 noundef zeroext false, ptr noundef null)
  store ptr %111, ptr %6, align 8
  %112 = load ptr, ptr %6, align 8
  %113 = call i64 @RangeTypePGetDatum(ptr noundef %112)
  call void @llvm.lifetime.end.p0(i64 1, ptr %10) #10
  call void @llvm.lifetime.end.p0(i64 16, ptr %9) #10
  call void @llvm.lifetime.end.p0(i64 16, ptr %8) #10
  call void @llvm.lifetime.end.p0(i64 8, ptr %7) #10
  call void @llvm.lifetime.end.p0(i64 8, ptr %6) #10
  call void @llvm.lifetime.end.p0(i64 4, ptr %5) #10
  call void @llvm.lifetime.end.p0(i64 8, ptr %4) #10
  call void @llvm.lifetime.end.p0(i64 8, ptr %3) #10
  ret i64 %113
}