; Function Attrs: nounwind uwtable
define dso_local i64 @range_constructor3(ptr noundef readonly captures(none) %0) local_unnamed_addr #0 {
  %2 = alloca %struct.RangeBound, align 8
  %3 = alloca %struct.RangeBound, align 8
  %4 = getelementptr inbounds nuw i8, ptr %0, i64 32
  %5 = load i64, ptr %4, align 8
  %6 = getelementptr inbounds nuw i8, ptr %0, i64 48
  %7 = load i64, ptr %6, align 8
  %8 = load ptr, ptr %0, align 8
  %9 = tail call i32 @get_fn_expr_rettype(ptr noundef %8) #14
  call void @llvm.lifetime.start.p0(i64 16, ptr nonnull %2) #14
  call void @llvm.lifetime.start.p0(i64 16, ptr nonnull %3) #14
  %10 = load ptr, ptr %0, align 8
  %11 = getelementptr inbounds nuw i8, ptr %10, i64 24
  %12 = load ptr, ptr %11, align 8
  %13 = icmp eq ptr %12, null
  br i1 %13, label %16, label %14

14:                                               ; preds = %1
  %15 = load i32, ptr %12, align 8
  %.not.i = icmp eq i32 %15, %9
  br i1 %.not.i, label %range_get_typcache.exit, label %16

16:                                               ; preds = %14, %1
  %17 = tail call ptr @lookup_type_cache(i32 noundef %9, i32 noundef 2048) #14
  %18 = getelementptr inbounds nuw i8, ptr %17, i64 280
  %19 = load ptr, ptr %18, align 8
  %20 = icmp eq ptr %19, null
  br i1 %20, label %21, label %24

21:                                               ; preds = %16
  %22 = tail call zeroext i1 @errstart_cold(i32 noundef 21, ptr noundef null) #16
  tail call void @llvm.assume(i1 %22)
  %23 = tail call i32 (ptr, ...) @errmsg_internal(ptr noundef nonnull @.str.12, i32 noundef %9) #14
  tail call void @errfinish(ptr noundef nonnull @.str.1, i32 noundef 1712, ptr noundef nonnull @__func__.range_get_typcache) #14
  unreachable

24:                                               ; preds = %16
  %25 = load ptr, ptr %0, align 8
  %26 = getelementptr inbounds nuw i8, ptr %25, i64 24
  store ptr %17, ptr %26, align 8
  br label %range_get_typcache.exit

range_get_typcache.exit:                          ; preds = %14, %24
  %.0.i = phi ptr [ %17, %24 ], [ %12, %14 ]
  %27 = getelementptr inbounds nuw i8, ptr %0, i64 72
  %28 = load i8, ptr %27, align 8, !range !7, !noundef !8
  %29 = trunc nuw i8 %28 to i1
  br i1 %29, label %30, label %34

30:                                               ; preds = %range_get_typcache.exit
  %31 = tail call zeroext i1 @errstart_cold(i32 noundef 21, ptr noundef null) #16
  tail call void @llvm.assume(i1 %31)
  %32 = tail call i32 @errcode(i32 noundef 130) #14
  %33 = tail call i32 (ptr, ...) @errmsg(ptr noundef nonnull @.str) #14
  tail call void @errfinish(ptr noundef nonnull @.str.1, i32 noundef 422, ptr noundef nonnull @__func__.range_constructor3) #14
  unreachable

34:                                               ; preds = %range_get_typcache.exit
  %35 = getelementptr inbounds nuw i8, ptr %0, i64 64
  %36 = load i64, ptr %35, align 8
  %37 = inttoptr i64 %36 to ptr
  %38 = tail call ptr @pg_detoast_datum_packed(ptr noundef %37) #14
  %39 = tail call ptr @text_to_cstring(ptr noundef %38) #14
  %40 = load i8, ptr %39, align 1
  %41 = icmp eq i8 %40, 0
  br i1 %41, label %49, label %42

42:                                               ; preds = %34
  %43 = getelementptr inbounds nuw i8, ptr %39, i64 1
  %44 = load i8, ptr %43, align 1
  %45 = icmp eq i8 %44, 0
  br i1 %45, label %49, label %46

46:                                               ; preds = %42
  %47 = getelementptr inbounds nuw i8, ptr %39, i64 2
  %48 = load i8, ptr %47, align 1
  %.not.i16 = icmp eq i8 %48, 0
  br i1 %.not.i16, label %54, label %49

49:                                               ; preds = %46, %42, %34
  %50 = tail call zeroext i1 @errstart_cold(i32 noundef 21, ptr noundef null) #16
  tail call void @llvm.assume(i1 %50)
  %51 = tail call i32 @errcode(i32 noundef 16801924) #14
  %52 = tail call i32 (ptr, ...) @errmsg(ptr noundef nonnull @.str.19) #14
  %53 = tail call i32 (ptr, ...) @errhint(ptr noundef nonnull @.str.20) #14
  tail call void @errfinish(ptr noundef nonnull @.str.1, i32 noundef 2257, ptr noundef nonnull @__func__.range_parse_flags) #14
  unreachable

54:                                               ; preds = %46
  switch i8 %40, label %56 [
    i8 91, label %55
    i8 40, label %61
  ]

55:                                               ; preds = %54
  br label %61

56:                                               ; preds = %54
  %57 = tail call zeroext i1 @errstart_cold(i32 noundef 21, ptr noundef null) #16
  tail call void @llvm.assume(i1 %57)
  %58 = tail call i32 @errcode(i32 noundef 16801924) #14
  %59 = tail call i32 (ptr, ...) @errmsg(ptr noundef nonnull @.str.19) #14
  %60 = tail call i32 (ptr, ...) @errhint(ptr noundef nonnull @.str.20) #14
  tail call void @errfinish(ptr noundef nonnull @.str.1, i32 noundef 2270, ptr noundef nonnull @__func__.range_parse_flags) #14
  unreachable

61:                                               ; preds = %55, %54
  %.0.i17 = phi i8 [ 0, %54 ], [ 2, %55 ]
  switch i8 %44, label %64 [
    i8 93, label %62
    i8 41, label %range_parse_flags.exit
  ]

62:                                               ; preds = %61
  %63 = or disjoint i8 %.0.i17, 4
  br label %range_parse_flags.exit

64:                                               ; preds = %61
  %65 = tail call zeroext i1 @errstart_cold(i32 noundef 21, ptr noundef null) #16
  tail call void @llvm.assume(i1 %65)
  %66 = tail call i32 @errcode(i32 noundef 16801924) #14
  %67 = tail call i32 (ptr, ...) @errmsg(ptr noundef nonnull @.str.19) #14
  %68 = tail call i32 (ptr, ...) @errhint(ptr noundef nonnull @.str.20) #14
  tail call void @errfinish(ptr noundef nonnull @.str.1, i32 noundef 2284, ptr noundef nonnull @__func__.range_parse_flags) #14
  unreachable

range_parse_flags.exit:                           ; preds = %61, %62
  %.1.i = phi i8 [ %.0.i17, %61 ], [ %63, %62 ]
  %69 = getelementptr inbounds nuw i8, ptr %0, i64 40
  %70 = load i8, ptr %69, align 8, !range !7, !noundef !8
  %71 = trunc nuw i8 %70 to i1
  %72 = select i1 %71, i64 0, i64 %5
  store i64 %72, ptr %2, align 8
  %73 = getelementptr inbounds nuw i8, ptr %2, i64 8
  store i8 %70, ptr %73, align 8
  %74 = getelementptr inbounds nuw i8, ptr %2, i64 9
  %75 = lshr i8 %.1.i, 1
  %.lobit = and i8 %75, 1
  store i8 %.lobit, ptr %74, align 1
  %76 = getelementptr inbounds nuw i8, ptr %2, i64 10
  store i8 1, ptr %76, align 2
  %77 = getelementptr inbounds nuw i8, ptr %0, i64 56
  %78 = load i8, ptr %77, align 8, !range !7, !noundef !8
  %79 = trunc nuw i8 %78 to i1
  %80 = select i1 %79, i64 0, i64 %7
  store i64 %80, ptr %3, align 8
  %81 = getelementptr inbounds nuw i8, ptr %3, i64 8
  store i8 %78, ptr %81, align 8
  %82 = icmp samesign ugt i8 %.1.i, 3
  %83 = getelementptr inbounds nuw i8, ptr %3, i64 9
  %84 = zext i1 %82 to i8
  store i8 %84, ptr %83, align 1
  %85 = getelementptr inbounds nuw i8, ptr %3, i64 10
  store i8 0, ptr %85, align 2
  %86 = call ptr @make_range(ptr noundef nonnull %.0.i, ptr noundef nonnull %2, ptr noundef nonnull %3, i1 noundef zeroext false, ptr noundef null)
  %87 = ptrtoint ptr %86 to i64
  call void @llvm.lifetime.end.p0(i64 16, ptr nonnull %3) #14
  call void @llvm.lifetime.end.p0(i64 16, ptr nonnull %2) #14
  ret i64 %87
}